target datalayout = "e-m:e-p270:32:32-p271:32:32-p272:64:64-i64:64-i128:128-f80:128-n8:16:32:64-S128"
target triple = "x86_64-pc-linux-gnu"

%struct.reftable_buf = type { i64, i64, ptr }
%struct.reftable_write_options = type { i8, i32, i8, i16, i32, i32, i8, i8, i64, ptr, ptr, ptr }
%struct.reftable_stack = type { %struct.stat, ptr, i32, ptr, %struct.reftable_write_options, ptr, i64, ptr, %struct.reftable_compaction_stats }
%struct.stat = type { i64, i64, i64, i32, i32, i32, i32, i64, i64, i64, i64, %struct.timespec, %struct.timespec, %struct.timespec, [3 x i64] }
%struct.timespec = type { i64, i64 }
%struct.reftable_compaction_stats = type { i64, i64, i32, i32 }
%struct.reftable_reader = type { ptr, %struct.reftable_block_source, i64, i32, i32, i64, i64, i32, i32, %struct.reftable_reader_offsets, %struct.reftable_reader_offsets, %struct.reftable_reader_offsets, i64 }
%struct.reftable_block_source = type { ptr, ptr }
%struct.reftable_reader_offsets = type { i32, i64, i64 }
%struct.reftable_merged_table = type { ptr, i64, i32, i32, i64, i64 }
%struct.reftable_addition = type { %struct.reftable_flock, ptr, ptr, i64, i64, i64 }
%struct.reftable_flock = type { ptr, i32, ptr }

@.str.1 = private unnamed_addr constant [2 x i8] c"\0A\00", align 1

; Function Attrs: nounwind uwtable
define internal i32 @stack_fsync(ptr noundef %0, i32 noundef %1) #0 {
  %3 = alloca i32, align 4
  %4 = alloca ptr, align 8
  %5 = alloca i32, align 4
  store ptr %0, ptr %4, align 8, !tbaa !11
  store i32 %1, ptr %5, align 4, !tbaa !15
  %6 = load ptr, ptr %4, align 8, !tbaa !11
  %7 = getelementptr inbounds nuw %struct.reftable_write_options, ptr %6, i32 0, i32 9
  %8 = load ptr, ptr %7, align 8, !tbaa !83
  %9 = icmp ne ptr %8, null
  br i1 %9, label %10, label %16

10:                                               ; preds = %2
  %11 = load ptr, ptr %4, align 8, !tbaa !11
  %12 = getelementptr inbounds nuw %struct.reftable_write_options, ptr %11, i32 0, i32 9
  %13 = load ptr, ptr %12, align 8, !tbaa !83
  %14 = load i32, ptr %5, align 4, !tbaa !15
  %15 = call i32 %13(i32 noundef %14)
  store i32 %15, ptr %3, align 4
  br label %19

16:                                               ; preds = %2
  %17 = load i32, ptr %5, align 4, !tbaa !15
  %18 = call i32 @fsync(i32 noundef %17)
  store i32 %18, ptr %3, align 4
  br label %19

19:                                               ; preds = %16, %10
  %20 = load i32, ptr %3, align 4
  ret i32 %20
}

; Function Attrs: nounwind uwtable
define dso_local i32 @reftable_addition_commit(ptr noundef %0) #0 {
  %2 = alloca ptr, align 8
  %3 = alloca %struct.reftable_buf, align 8
  %4 = alloca i32, align 4
  %5 = alloca i64, align 8
  store ptr %0, ptr %2, align 8, !tbaa !70
  call void @llvm.lifetime.start.p0(i64 24, ptr %3) #10
  call void @llvm.memset.p0.i64(ptr align 8 %3, i8 0, i64 24, i1 false)
  call void @llvm.lifetime.start.p0(i64 4, ptr %4) #10
  store i32 0, ptr %4, align 4, !tbaa !15
  call void @llvm.lifetime.start.p0(i64 8, ptr %5) #10
  %6 = load ptr, ptr %2, align 8, !tbaa !70
  %7 = getelementptr inbounds nuw %struct.reftable_addition, ptr %6, i32 0, i32 3
  %8 = load i64, ptr %7, align 8, !tbaa !72
  %9 = icmp eq i64 %8, 0
  br i1 %9, label %10, label %11

10:                                               ; preds = %1
  br label %159

11:                                               ; preds = %1
  store i64 0, ptr %5, align 8, !tbaa !21
  br label %12

12:                                               ; preds = %40, %11
  %13 = load i64, ptr %5, align 8, !tbaa !21
  %14 = load ptr, ptr %2, align 8, !tbaa !70
  %15 = getelementptr inbounds nuw %struct.reftable_addition, ptr %14, i32 0, i32 1
  %16 = load ptr, ptr %15, align 8, !tbaa !75
  %17 = getelementptr inbounds nuw %struct.reftable_stack, ptr %16, i32 0, i32 7
  %18 = load ptr, ptr %17, align 8, !tbaa !43
  %19 = getelementptr inbounds nuw %struct.reftable_merged_table, ptr %18, i32 0, i32 1
  %20 = load i64, ptr %19, align 8, !tbaa !68
  %21 = icmp ult i64 %13, %20
  br i1 %21, label %22, label %43

22:                                               ; preds = %12
  %23 = load ptr, ptr %2, align 8, !tbaa !70
  %24 = getelementptr inbounds nuw %struct.reftable_addition, ptr %23, i32 0, i32 1
  %25 = load ptr, ptr %24, align 8, !tbaa !75
  %26 = getelementptr inbounds nuw %struct.reftable_stack, ptr %25, i32 0, i32 5
  %27 = load ptr, ptr %26, align 8, !tbaa !44
  %28 = load i64, ptr %5, align 8, !tbaa !21
  %29 = getelementptr inbounds nuw ptr, ptr %27, i64 %28
  %30 = load ptr, ptr %29, align 8, !tbaa !46
  %31 = getelementptr inbounds nuw %struct.reftable_reader, ptr %30, i32 0, i32 0
  %32 = load ptr, ptr %31, align 8, !tbaa !62
  %33 = call i32 @reftable_buf_addstr(ptr noundef %3, ptr noundef %32)
  store i32 %33, ptr %4, align 4, !tbaa !15
  %34 = icmp slt i32 %33, 0
  br i1 %34, label %38, label %35

35:                                               ; preds = %22
  %36 = call i32 @reftable_buf_addstr(ptr noundef %3, ptr noundef @.str.1)
  store i32 %36, ptr %4, align 4, !tbaa !15
  %37 = icmp slt i32 %36, 0
  br i1 %37, label %38, label %39

38:                                               ; preds = %35, %22
  br label %159

39:                                               ; preds = %35
  br label %40

40:                                               ; preds = %39
  %41 = load i64, ptr %5, align 8, !tbaa !21
  %42 = add i64 %41, 1
  store i64 %42, ptr %5, align 8, !tbaa !21
  br label %12, !llvm.loop !79

43:                                               ; preds = %12
  store i64 0, ptr %5, align 8, !tbaa !21
  br label %44

44:                                               ; preds = %64, %43
  %45 = load i64, ptr %5, align 8, !tbaa !21
  %46 = load ptr, ptr %2, align 8, !tbaa !70
  %47 = getelementptr inbounds nuw %struct.reftable_addition, ptr %46, i32 0, i32 3
  %48 = load i64, ptr %47, align 8, !tbaa !72
  %49 = icmp ult i64 %45, %48
  br i1 %49, label %50, label %67

50:                                               ; preds = %44
  %51 = load ptr, ptr %2, align 8, !tbaa !70
  %52 = getelementptr inbounds nuw %struct.reftable_addition, ptr %51, i32 0, i32 2
  %53 = load ptr, ptr %52, align 8, !tbaa !76
  %54 = load i64, ptr %5, align 8, !tbaa !21
  %55 = getelementptr inbounds nuw ptr, ptr %53, i64 %54
  %56 = load ptr, ptr %55, align 8, !tbaa !9
  %57 = call i32 @reftable_buf_addstr(ptr noundef %3, ptr noundef %56)
  store i32 %57, ptr %4, align 4, !tbaa !15
  %58 = icmp slt i32 %57, 0
  br i1 %58, label %62, label %59

59:                                               ; preds = %50
  %60 = call i32 @reftable_buf_addstr(ptr noundef %3, ptr noundef @.str.1)
  store i32 %60, ptr %4, align 4, !tbaa !15
  %61 = icmp slt i32 %60, 0
  br i1 %61, label %62, label %63

62:                                               ; preds = %59, %50
  br label %159

63:                                               ; preds = %59
  br label %64

64:                                               ; preds = %63
  %65 = load i64, ptr %5, align 8, !tbaa !21
  %66 = add i64 %65, 1
  store i64 %66, ptr %5, align 8, !tbaa !21
  br label %44, !llvm.loop !80

67:                                               ; preds = %44
  %68 = load ptr, ptr %2, align 8, !tbaa !70
  %69 = getelementptr inbounds nuw %struct.reftable_addition, ptr %68, i32 0, i32 0
  %70 = getelementptr inbounds nuw %struct.reftable_flock, ptr %69, i32 0, i32 1
  %71 = load i32, ptr %70, align 8, !tbaa !81
  %72 = getelementptr inbounds nuw %struct.reftable_buf, ptr %3, i32 0, i32 2
  %73 = load ptr, ptr %72, align 8, !tbaa !50
  %74 = getelementptr inbounds nuw %struct.reftable_buf, ptr %3, i32 0, i32 1
  %75 = load i64, ptr %74, align 8, !tbaa !48
  %76 = call i64 @write_in_full(i32 noundef %71, ptr noundef %73, i64 noundef %75)
  %77 = trunc i64 %76 to i32
  store i32 %77, ptr %4, align 4, !tbaa !15
  call void @reftable_buf_release(ptr noundef %3)
  %78 = load i32, ptr %4, align 4, !tbaa !15
  %79 = icmp slt i32 %78, 0
  br i1 %79, label %80, label %81

80:                                               ; preds = %67
  store i32 -2, ptr %4, align 4, !tbaa !15
  br label %159

81:                                               ; preds = %67
  %82 = load ptr, ptr %2, align 8, !tbaa !70
  %83 = getelementptr inbounds nuw %struct.reftable_addition, ptr %82, i32 0, i32 1
  %84 = load ptr, ptr %83, align 8, !tbaa !75
  %85 = getelementptr inbounds nuw %struct.reftable_stack, ptr %84, i32 0, i32 4
  %86 = load ptr, ptr %2, align 8, !tbaa !70
  %87 = getelementptr inbounds nuw %struct.reftable_addition, ptr %86, i32 0, i32 0
  %88 = getelementptr inbounds nuw %struct.reftable_flock, ptr %87, i32 0, i32 1
  %89 = load i32, ptr %88, align 8, !tbaa !81
  %90 = call i32 @stack_fsync(ptr noundef %85, i32 noundef %89)
  store i32 %90, ptr %4, align 4, !tbaa !15
  %91 = load i32, ptr %4, align 4, !tbaa !15
  %92 = icmp slt i32 %91, 0
  br i1 %92, label %93, label %94

93:                                               ; preds = %81
  store i32 -2, ptr %4, align 4, !tbaa !15
  br label %159

94:                                               ; preds = %81
  %95 = load ptr, ptr %2, align 8, !tbaa !70
  %96 = getelementptr inbounds nuw %struct.reftable_addition, ptr %95, i32 0, i32 0
  %97 = call i32 @flock_commit(ptr noundef %96)
  store i32 %97, ptr %4, align 4, !tbaa !15
  %98 = load i32, ptr %4, align 4, !tbaa !15
  %99 = icmp slt i32 %98, 0
  br i1 %99, label %100, label %101

100:                                              ; preds = %94
  store i32 -2, ptr %4, align 4, !tbaa !15
  br label %159

101:                                              ; preds = %94
  store i64 0, ptr %5, align 8, !tbaa !21
  br label %102

102:                                              ; preds = %115, %101
  %103 = load i64, ptr %5, align 8, !tbaa !21
  %104 = load ptr, ptr %2, align 8, !tbaa !70
  %105 = getelementptr inbounds nuw %struct.reftable_addition, ptr %104, i32 0, i32 3
  %106 = load i64, ptr %105, align 8, !tbaa !72
  %107 = icmp ult i64 %103, %106
  br i1 %107, label %108, label %118

108:                                              ; preds = %102
  %109 = load ptr, ptr %2, align 8, !tbaa !70
  %110 = getelementptr inbounds nuw %struct.reftable_addition, ptr %109, i32 0, i32 2
  %111 = load ptr, ptr %110, align 8, !tbaa !76
  %112 = load i64, ptr %5, align 8, !tbaa !21
  %113 = getelementptr inbounds nuw ptr, ptr %111, i64 %112
  %114 = load ptr, ptr %113, align 8, !tbaa !9
  call void @reftable_free(ptr noundef %114)
  br label %115

115:                                              ; preds = %108
  %116 = load i64, ptr %5, align 8, !tbaa !21
  %117 = add i64 %116, 1
  store i64 %117, ptr %5, align 8, !tbaa !21
  br label %102, !llvm.loop !82

118:                                              ; preds = %102
  %119 = load ptr, ptr %2, align 8, !tbaa !70
  %120 = getelementptr inbounds nuw %struct.reftable_addition, ptr %119, i32 0, i32 2
  %121 = load ptr, ptr %120, align 8, !tbaa !76
  call void @reftable_free(ptr noundef %121)
  %122 = load ptr, ptr %2, align 8, !tbaa !70
  %123 = getelementptr inbounds nuw %struct.reftable_addition, ptr %122, i32 0, i32 2
  store ptr null, ptr %123, align 8, !tbaa !76
  %124 = load ptr, ptr %2, align 8, !tbaa !70
  %125 = getelementptr inbounds nuw %struct.reftable_addition, ptr %124, i32 0, i32 3
  store i64 0, ptr %125, align 8, !tbaa !72
  %126 = load ptr, ptr %2, align 8, !tbaa !70
  %127 = getelementptr inbounds nuw %struct.reftable_addition, ptr %126, i32 0, i32 4
  store i64 0, ptr %127, align 8, !tbaa !78
  %128 = load ptr, ptr %2, align 8, !tbaa !70
  %129 = getelementptr inbounds nuw %struct.reftable_addition, ptr %128, i32 0, i32 1
  %130 = load ptr, ptr %129, align 8, !tbaa !75
  %131 = call i32 @reftable_stack_reload_maybe_reuse(ptr noundef %130, i32 noundef 1)
  store i32 %131, ptr %4, align 4, !tbaa !15
  %132 = load i32, ptr %4, align 4, !tbaa !15
  %133 = icmp ne i32 %132, 0
  br i1 %133, label %134, label %135

134:                                              ; preds = %118
  br label %159

135:                                              ; preds = %118
  %136 = load ptr, ptr %2, align 8, !tbaa !70
  %137 = getelementptr inbounds nuw %struct.reftable_addition, ptr %136, i32 0, i32 1
  %138 = load ptr, ptr %137, align 8, !tbaa !75
  %139 = getelementptr inbounds nuw %struct.reftable_stack, ptr %138, i32 0, i32 4
  %140 = getelementptr inbounds nuw %struct.reftable_write_options, ptr %139, i32 0, i32 6
  %141 = load i8, ptr %140, align 4
  %142 = lshr i8 %141, 1
  %143 = and i8 %142, 1
  %144 = zext i8 %143 to i32
  %145 = icmp ne i32 %144, 0
  br i1 %145, label %158, label %146

146:                                              ; preds = %135
  %147 = load ptr, ptr %2, align 8, !tbaa !70
  %148 = getelementptr inbounds nuw %struct.reftable_addition, ptr %147, i32 0, i32 1
  %149 = load ptr, ptr %148, align 8, !tbaa !75
  %150 = call i32 @reftable_stack_auto_compact(ptr noundef %149)
  store i32 %150, ptr %4, align 4, !tbaa !15
  %151 = load i32, ptr %4, align 4, !tbaa !15
  %152 = icmp slt i32 %151, 0
  br i1 %152, label %153, label %157

153:                                              ; preds = %146
  %154 = load i32, ptr %4, align 4, !tbaa !15
  %155 = icmp ne i32 %154, -5
  br i1 %155, label %156, label %157

156:                                              ; preds = %153
  br label %159

157:                                              ; preds = %153, %146
  store i32 0, ptr %4, align 4, !tbaa !15
  br label %158

158:                                              ; preds = %157, %135
  br label %159

159:                                              ; preds = %158, %156, %134, %100, %93, %80, %62, %38, %10
  %160 = load ptr, ptr %2, align 8, !tbaa !70
  call void @reftable_addition_close(ptr noundef %160)
  %161 = load i32, ptr %4, align 4, !tbaa !15
  call void @llvm.lifetime.end.p0(i64 8, ptr %5) #10
  call void @llvm.lifetime.end.p0(i64 4, ptr %4) #10
  call void @llvm.lifetime.end.p0(i64 24, ptr %3) #10
  ret i32 %161
}