; Function Attrs: nounwind uwtable
define dso_local i32 @reftable_addition_commit(ptr noundef %0) local_unnamed_addr #0 {
  %2 = alloca %struct.reftable_buf, align 8
  call void @llvm.lifetime.start.p0(i64 24, ptr nonnull %2) #16
  call void @llvm.memset.p0.i64(ptr noundef nonnull align 8 dereferenceable(24) %2, i8 0, i64 24, i1 false)
  %3 = getelementptr inbounds nuw i8, ptr %0, i64 40
  %4 = load i64, ptr %3, align 8, !tbaa !67
  %5 = icmp eq i64 %4, 0
  br i1 %5, label %.loopexit, label %.preheader46

.preheader46:                                     ; preds = %1
  %6 = getelementptr inbounds nuw i8, ptr %0, i64 24
  %7 = load ptr, ptr %6, align 8, !tbaa !71
  %8 = getelementptr inbounds nuw i8, ptr %7, i64 240
  %9 = load ptr, ptr %8, align 8, !tbaa !34
  %10 = getelementptr inbounds nuw i8, ptr %9, i64 8
  %11 = load i64, ptr %10, align 8, !tbaa !36
  %.not56 = icmp eq i64 %11, 0
  br i1 %.not56, label %.lr.ph52, label %.lr.ph

12:                                               ; preds = %30
  %13 = add nuw i64 %.050, 1
  %14 = load ptr, ptr %6, align 8, !tbaa !71
  %15 = getelementptr inbounds nuw i8, ptr %14, i64 240
  %16 = load ptr, ptr %15, align 8, !tbaa !34
  %17 = getelementptr inbounds nuw i8, ptr %16, i64 8
  %18 = load i64, ptr %17, align 8, !tbaa !36
  %19 = icmp ult i64 %13, %18
  br i1 %19, label %.lr.ph, label %.preheader45, !llvm.loop !73

.preheader45:                                     ; preds = %12
  %.pre = load i64, ptr %3, align 8, !tbaa !67
  %20 = icmp eq i64 %.pre, 0
  br i1 %20, label %._crit_edge, label %.lr.ph52

.lr.ph52:                                         ; preds = %.preheader46, %.preheader45
  %21 = getelementptr inbounds nuw i8, ptr %0, i64 32
  br label %37

.lr.ph:                                           ; preds = %.preheader46, %12
  %22 = phi ptr [ %14, %12 ], [ %7, %.preheader46 ]
  %.050 = phi i64 [ %13, %12 ], [ 0, %.preheader46 ]
  %23 = getelementptr inbounds nuw i8, ptr %22, i64 224
  %24 = load ptr, ptr %23, align 8, !tbaa !38
  %25 = getelementptr inbounds nuw ptr, ptr %24, i64 %.050
  %26 = load ptr, ptr %25, align 8, !tbaa !39
  %27 = load ptr, ptr %26, align 8, !tbaa !44
  %28 = call i32 @reftable_buf_addstr(ptr noundef nonnull %2, ptr noundef %27) #16
  %29 = icmp slt i32 %28, 0
  br i1 %29, label %.loopexit, label %30

30:                                               ; preds = %.lr.ph
  %31 = call i32 @reftable_buf_addstr(ptr noundef nonnull %2, ptr noundef nonnull @.str.1) #16
  %32 = icmp slt i32 %31, 0
  br i1 %32, label %.loopexit, label %12

33:                                               ; preds = %43
  %34 = add nuw i64 %.151, 1
  %35 = load i64, ptr %3, align 8, !tbaa !67
  %36 = icmp ult i64 %34, %35
  br i1 %36, label %37, label %._crit_edge, !llvm.loop !74

37:                                               ; preds = %.lr.ph52, %33
  %.151 = phi i64 [ 0, %.lr.ph52 ], [ %34, %33 ]
  %38 = load ptr, ptr %21, align 8, !tbaa !70
  %39 = getelementptr inbounds nuw ptr, ptr %38, i64 %.151
  %40 = load ptr, ptr %39, align 8, !tbaa !43
  %41 = call i32 @reftable_buf_addstr(ptr noundef nonnull %2, ptr noundef %40) #16
  %42 = icmp slt i32 %41, 0
  br i1 %42, label %.loopexit, label %43

43:                                               ; preds = %37
  %44 = call i32 @reftable_buf_addstr(ptr noundef nonnull %2, ptr noundef nonnull @.str.1) #16
  %45 = icmp slt i32 %44, 0
  br i1 %45, label %.loopexit, label %33

._crit_edge:                                      ; preds = %33, %.preheader45
  %46 = getelementptr inbounds nuw i8, ptr %0, i64 8
  %47 = load i32, ptr %46, align 8, !tbaa !75
  %48 = getelementptr inbounds nuw i8, ptr %2, i64 16
  %49 = load ptr, ptr %48, align 8, !tbaa !50
  %50 = getelementptr inbounds nuw i8, ptr %2, i64 8
  %51 = load i64, ptr %50, align 8, !tbaa !76
  %52 = call i64 @write_in_full(i32 noundef %47, ptr noundef %49, i64 noundef %51) #16
  call void @reftable_buf_release(ptr noundef nonnull %2) #16
  %53 = and i64 %52, 2147483648
  %.not = icmp eq i64 %53, 0
  br i1 %.not, label %54, label %.loopexit

54:                                               ; preds = %._crit_edge
  %55 = load ptr, ptr %6, align 8, !tbaa !71
  %56 = load i32, ptr %46, align 8, !tbaa !75
  %57 = getelementptr i8, ptr %55, i64 200
  %.val = load ptr, ptr %57, align 8, !tbaa !77
  %.not.i = icmp eq ptr %.val, null
  br i1 %.not.i, label %60, label %58

58:                                               ; preds = %54
  %59 = call i32 %.val(i32 noundef %56) #16
  br label %stack_fsync.exit

60:                                               ; preds = %54
  %61 = call i32 @fsync(i32 noundef %56) #16
  br label %stack_fsync.exit

stack_fsync.exit:                                 ; preds = %58, %60
  %.0.i = phi i32 [ %59, %58 ], [ %61, %60 ]
  %62 = icmp slt i32 %.0.i, 0
  br i1 %62, label %.loopexit, label %63

63:                                               ; preds = %stack_fsync.exit
  %64 = call i32 @flock_commit(ptr noundef nonnull %0) #16
  %65 = icmp slt i32 %64, 0
  br i1 %65, label %.loopexit, label %.preheader

.preheader:                                       ; preds = %63
  %66 = load i64, ptr %3, align 8, !tbaa !67
  %.not58 = icmp eq i64 %66, 0
  br i1 %.not58, label %._crit_edge55, label %.lr.ph54

.lr.ph54:                                         ; preds = %.preheader
  %67 = getelementptr inbounds nuw i8, ptr %0, i64 32
  br label %68

68:                                               ; preds = %.lr.ph54, %68
  %.253 = phi i64 [ 0, %.lr.ph54 ], [ %72, %68 ]
  %69 = load ptr, ptr %67, align 8, !tbaa !70
  %70 = getelementptr inbounds nuw ptr, ptr %69, i64 %.253
  %71 = load ptr, ptr %70, align 8, !tbaa !43
  call void @reftable_free(ptr noundef %71) #16
  %72 = add nuw i64 %.253, 1
  %73 = load i64, ptr %3, align 8, !tbaa !67
  %74 = icmp ult i64 %72, %73
  br i1 %74, label %68, label %._crit_edge55, !llvm.loop !78

._crit_edge55:                                    ; preds = %68, %.preheader
  %75 = getelementptr inbounds nuw i8, ptr %0, i64 32
  %76 = load ptr, ptr %75, align 8, !tbaa !70
  call void @reftable_free(ptr noundef %76) #16
  call void @llvm.memset.p0.i64(ptr noundef nonnull align 8 dereferenceable(24) %75, i8 0, i64 24, i1 false)
  %77 = load ptr, ptr %6, align 8, !tbaa !71
  %78 = call fastcc i32 @reftable_stack_reload_maybe_reuse(ptr noundef %77, i32 noundef 1)
  %.not42 = icmp eq i32 %78, 0
  br i1 %.not42, label %79, label %.loopexit

79:                                               ; preds = %._crit_edge55
  %80 = load ptr, ptr %6, align 8, !tbaa !71
  %81 = getelementptr inbounds nuw i8, ptr %80, i64 188
  %82 = load i8, ptr %81, align 4
  %83 = and i8 %82, 2
  %.not43 = icmp eq i8 %83, 0
  br i1 %.not43, label %84, label %.loopexit

84:                                               ; preds = %79
  %85 = call i32 @reftable_stack_auto_compact(ptr noundef nonnull %80)
  %.not44 = icmp eq i32 %85, -5
  %86 = call i32 @llvm.smin.i32(i32 %85, i32 0)
  %spec.store.select = select i1 %.not44, i32 0, i32 %86
  br label %.loopexit

.loopexit:                                        ; preds = %.lr.ph, %30, %37, %43, %63, %stack_fsync.exit, %._crit_edge, %84, %79, %._crit_edge55, %1
  %.035 = phi i32 [ 0, %1 ], [ %78, %._crit_edge55 ], [ 0, %79 ], [ %spec.store.select, %84 ], [ -2, %._crit_edge ], [ -2, %stack_fsync.exit ], [ -2, %63 ], [ %44, %43 ], [ %41, %37 ], [ %31, %30 ], [ %28, %.lr.ph ]
  call fastcc void @reftable_addition_close(ptr noundef %0)
  call void @llvm.lifetime.end.p0(i64 24, ptr nonnull %2) #16
  ret i32 %.035
}